target datalayout = "e-m:e-p270:32:32-p271:32:32-p272:64:64-i64:64-i128:128-f80:128-n8:16:32:64-S128"
target triple = "x86_64-pc-linux-gnu"

%struct.Curl_easy = type { i32, i64, i64, ptr, %struct.Curl_llist_node, %struct.Curl_llist_node, i32, i32, %struct.Curl_message, %struct.easy_pollset, %struct.Names, ptr, ptr, ptr, %struct.SingleRequest, %struct.UserDefined, ptr, ptr, %struct.Progress, %struct.UrlState, ptr, %struct.PureInfo, %struct.curl_tlssessioninfo }
%struct.Curl_llist_node = type { ptr, ptr, ptr, ptr }
%struct.Curl_message = type { %struct.Curl_llist_node, %struct.CURLMsg }
%struct.CURLMsg = type { i32, ptr, %union.anon }
%union.anon = type { ptr }
%struct.easy_pollset = type { [5 x i32], i32, [5 x i8] }
%struct.Names = type { ptr, i32 }
%struct.SingleRequest = type <{ i64, i64, i64, i64, %struct.curltime, i32, i32, i32, i32, i64, i32, i32, i32, i32, ptr, ptr, %struct.bufq, i64, i64, ptr, ptr, %union.anon.0, ptr, i8, i32, [3 x i8] }>
%struct.curltime = type { i64, i32 }
%struct.bufq = type { ptr, ptr, ptr, ptr, i64, i64, i64, i32 }
%union.anon.0 = type { ptr }
%struct.UserDefined = type <{ ptr, ptr, ptr, ptr, ptr, ptr, i16, [6 x i8], i64, i64, i64, ptr, ptr, i64, i16, i16, [4 x i8], ptr, ptr, ptr, ptr, ptr, ptr, ptr, ptr, ptr, ptr, ptr, ptr, ptr, ptr, ptr, ptr, ptr, ptr, ptr, ptr, ptr, ptr, ptr, i32, i32, i32, i32, i32, [4 x i8], i64, i64, i64, i64, i64, i64, i64, i64, ptr, ptr, %struct.curl_mimepart, ptr, ptr, i64, i8, i8, i8, [5 x i8], %struct.ssl_config_data, %struct.ssl_config_data, ptr, i16, i8, i8, [4 x i8], %struct.ssl_general_config, i32, i32, i32, [4 x i8], ptr, ptr, i8, [7 x i8], i64, i8, i8, i8, i8, i32, ptr, ptr, ptr, i8, i8, [2 x i8], i32, [63 x ptr], [8 x ptr], i32, i32, i32, [4 x i8], ptr, ptr, ptr, ptr, ptr, i8, [3 x i8], i32, i32, i32, i64, %struct.Curl_data_priority, ptr, ptr, i64, ptr, i64, ptr, ptr, ptr, i8, [3 x i8], i32, i8, i8, i64, [6 x i8] }>
%struct.curl_mimepart = type { ptr, ptr, i32, i32, ptr, ptr, ptr, ptr, ptr, ptr, ptr, ptr, ptr, ptr, ptr, i64, %struct.mime_state, ptr, %struct.mime_encoder_state, i64 }
%struct.mime_state = type { i32, ptr, i64 }
%struct.mime_encoder_state = type { i64, i64, i64, [256 x i8] }
%struct.ssl_config_data = type { %struct.ssl_primary_config, i64, ptr, ptr, ptr, ptr, ptr, ptr, ptr, i16 }
%struct.ssl_primary_config = type { ptr, ptr, ptr, ptr, ptr, ptr, ptr, ptr, ptr, ptr, ptr, ptr, i8, i32, i8, i8 }
%struct.ssl_general_config = type { i64, i32 }
%struct.Curl_data_priority = type { ptr, ptr, i32, i8 }
%struct.Progress = type { i64, %struct.pgrs_dir, %struct.pgrs_dir, i64, i64, i32, i32, i64, i64, i64, i64, i64, i64, i64, i64, i64, %struct.curltime, %struct.curltime, %struct.curltime, %struct.curltime, [6 x i64], [6 x %struct.curltime], i32, i8 }
%struct.pgrs_dir = type { i64, i64, i64, %struct.pgrs_measure }
%struct.pgrs_measure = type { %struct.curltime, i64 }
%struct.UrlState = type { %struct.curltime, i64, i64, %struct.dynbuf, ptr, i64, ptr, i32, i32, i32, ptr, i64, i32, i64, i32, ptr, %struct.digestdata, %struct.digestdata, %struct.auth, %struct.auth, %struct.Curl_async, ptr, %struct.curltime, %struct.Curl_tree, %struct.Curl_llist, [15 x %struct.time_node], ptr, ptr, i64, i64, %struct.Curl_data_priority, ptr, ptr, ptr, %struct.urlpieces, ptr, ptr, ptr, ptr, ptr, i64, %struct.dynbuf, %struct.Curl_llist, [2 x %struct.curl_header], ptr, i32, ptr, ptr, %struct.store_netrc, %struct.dynamically_allocated_data, i8, i8, i8, i8, i32 }
%struct.digestdata = type { ptr, ptr, ptr, ptr, ptr, ptr, i32, i8, i8 }
%struct.auth = type { i64, i64, i64, i8 }
%struct.Curl_async = type { ptr, ptr, ptr, ptr, i32, i32, i8 }
%struct.Curl_tree = type { ptr, ptr, ptr, ptr, %struct.curltime, ptr }
%struct.time_node = type { %struct.Curl_llist_node, %struct.curltime, i32 }
%struct.urlpieces = type { ptr, ptr, ptr, ptr, ptr, ptr, ptr, ptr }
%struct.dynbuf = type { ptr, i64, i64, i64 }
%struct.Curl_llist = type { ptr, ptr, ptr, i64 }
%struct.curl_header = type { ptr, ptr, i64, i64, i32, ptr }
%struct.store_netrc = type { %struct.dynbuf, ptr, i8 }
%struct.dynamically_allocated_data = type { ptr, ptr, ptr, ptr, ptr, ptr, ptr, ptr, ptr, ptr, ptr, ptr, ptr }
%struct.PureInfo = type { i32, i32, i32, i64, i64, i64, i64, i64, ptr, ptr, i64, i32, %struct.ip_quadruple, i32, ptr, i32, %struct.curl_certinfo, i32, i8 }
%struct.ip_quadruple = type { [46 x i8], [46 x i8], i32, i32 }
%struct.curl_certinfo = type { i32, ptr }
%struct.curl_tlssessioninfo = type { i32, ptr }

@Curl_cfree = external global ptr, align 8
@Curl_ccalloc = external global ptr, align 8

; Function Attrs: nounwind uwtable
define dso_local void @Curl_freeset(ptr noundef %0) #0 {
  %2 = alloca ptr, align 8
  %3 = alloca i32, align 4
  %4 = alloca i32, align 4
  store ptr %0, ptr %2, align 8, !tbaa !4
  call void @llvm.lifetime.start.p0(i64 4, ptr %3) #8
  call void @llvm.lifetime.start.p0(i64 4, ptr %4) #8
  store i32 0, ptr %3, align 4, !tbaa !9
  br label %5

5:                                                ; preds = %26, %1
  %6 = load i32, ptr %3, align 4, !tbaa !9
  %7 = icmp ult i32 %6, 63
  br i1 %7, label %8, label %29

8:                                                ; preds = %5
  br label %9

9:                                                ; preds = %8
  %10 = load ptr, ptr @Curl_cfree, align 8, !tbaa !11
  %11 = load ptr, ptr %2, align 8, !tbaa !4
  %12 = getelementptr inbounds nuw %struct.Curl_easy, ptr %11, i32 0, i32 15
  %13 = getelementptr inbounds nuw %struct.UserDefined, ptr %12, i32 0, i32 93
  %14 = load i32, ptr %3, align 4, !tbaa !9
  %15 = zext i32 %14 to i64
  %16 = getelementptr inbounds nuw [63 x ptr], ptr %13, i64 0, i64 %15
  %17 = load ptr, ptr %16, align 8, !tbaa !12
  call void %10(ptr noundef %17)
  %18 = load ptr, ptr %2, align 8, !tbaa !4
  %19 = getelementptr inbounds nuw %struct.Curl_easy, ptr %18, i32 0, i32 15
  %20 = getelementptr inbounds nuw %struct.UserDefined, ptr %19, i32 0, i32 93
  %21 = load i32, ptr %3, align 4, !tbaa !9
  %22 = zext i32 %21 to i64
  %23 = getelementptr inbounds nuw [63 x ptr], ptr %20, i64 0, i64 %22
  store ptr null, ptr %23, align 8, !tbaa !12
  br label %24

24:                                               ; preds = %9
  br label %25

25:                                               ; preds = %24
  br label %26

26:                                               ; preds = %25
  %27 = load i32, ptr %3, align 4, !tbaa !9
  %28 = add i32 %27, 1
  store i32 %28, ptr %3, align 4, !tbaa !9
  br label %5, !llvm.loop !14

29:                                               ; preds = %5
  store i32 0, ptr %4, align 4, !tbaa !9
  br label %30

30:                                               ; preds = %51, %29
  %31 = load i32, ptr %4, align 4, !tbaa !9
  %32 = icmp ult i32 %31, 8
  br i1 %32, label %33, label %54

33:                                               ; preds = %30
  br label %34

34:                                               ; preds = %33
  %35 = load ptr, ptr @Curl_cfree, align 8, !tbaa !11
  %36 = load ptr, ptr %2, align 8, !tbaa !4
  %37 = getelementptr inbounds nuw %struct.Curl_easy, ptr %36, i32 0, i32 15
  %38 = getelementptr inbounds nuw %struct.UserDefined, ptr %37, i32 0, i32 94
  %39 = load i32, ptr %4, align 4, !tbaa !9
  %40 = zext i32 %39 to i64
  %41 = getelementptr inbounds nuw [8 x ptr], ptr %38, i64 0, i64 %40
  %42 = load ptr, ptr %41, align 8, !tbaa !16
  call void %35(ptr noundef %42)
  %43 = load ptr, ptr %2, align 8, !tbaa !4
  %44 = getelementptr inbounds nuw %struct.Curl_easy, ptr %43, i32 0, i32 15
  %45 = getelementptr inbounds nuw %struct.UserDefined, ptr %44, i32 0, i32 94
  %46 = load i32, ptr %4, align 4, !tbaa !9
  %47 = zext i32 %46 to i64
  %48 = getelementptr inbounds nuw [8 x ptr], ptr %45, i64 0, i64 %47
  store ptr null, ptr %48, align 8, !tbaa !16
  br label %49

49:                                               ; preds = %34
  br label %50

50:                                               ; preds = %49
  br label %51

51:                                               ; preds = %50
  %52 = load i32, ptr %4, align 4, !tbaa !9
  %53 = add i32 %52, 1
  store i32 %53, ptr %4, align 4, !tbaa !9
  br label %30, !llvm.loop !18

54:                                               ; preds = %30
  %55 = load ptr, ptr %2, align 8, !tbaa !4
  %56 = getelementptr inbounds nuw %struct.Curl_easy, ptr %55, i32 0, i32 19
  %57 = getelementptr inbounds nuw %struct.UrlState, ptr %56, i32 0, i32 54
  %58 = load i32, ptr %57, align 4
  %59 = lshr i32 %58, 17
  %60 = and i32 %59, 1
  %61 = icmp ne i32 %60, 0
  br i1 %61, label %62, label %80

62:                                               ; preds = %54
  br label %63

63:                                               ; preds = %62
  %64 = load ptr, ptr @Curl_cfree, align 8, !tbaa !11
  %65 = load ptr, ptr %2, align 8, !tbaa !4
  %66 = getelementptr inbounds nuw %struct.Curl_easy, ptr %65, i32 0, i32 19
  %67 = getelementptr inbounds nuw %struct.UrlState, ptr %66, i32 0, i32 36
  %68 = load ptr, ptr %67, align 8, !tbaa !19
  call void %64(ptr noundef %68)
  %69 = load ptr, ptr %2, align 8, !tbaa !4
  %70 = getelementptr inbounds nuw %struct.Curl_easy, ptr %69, i32 0, i32 19
  %71 = getelementptr inbounds nuw %struct.UrlState, ptr %70, i32 0, i32 36
  store ptr null, ptr %71, align 8, !tbaa !19
  br label %72

72:                                               ; preds = %63
  br label %73

73:                                               ; preds = %72
  %74 = load ptr, ptr %2, align 8, !tbaa !4
  %75 = getelementptr inbounds nuw %struct.Curl_easy, ptr %74, i32 0, i32 19
  %76 = getelementptr inbounds nuw %struct.UrlState, ptr %75, i32 0, i32 54
  %77 = load i32, ptr %76, align 4
  %78 = and i32 %77, -131073
  %79 = or i32 %78, 0
  store i32 %79, ptr %76, align 4
  br label %80

80:                                               ; preds = %73, %54
  %81 = load ptr, ptr %2, align 8, !tbaa !4
  %82 = getelementptr inbounds nuw %struct.Curl_easy, ptr %81, i32 0, i32 19
  %83 = getelementptr inbounds nuw %struct.UrlState, ptr %82, i32 0, i32 36
  store ptr null, ptr %83, align 8, !tbaa !19
  %84 = load ptr, ptr %2, align 8, !tbaa !4
  %85 = getelementptr inbounds nuw %struct.Curl_easy, ptr %84, i32 0, i32 19
  %86 = getelementptr inbounds nuw %struct.UrlState, ptr %85, i32 0, i32 54
  %87 = load i32, ptr %86, align 4
  %88 = lshr i32 %87, 16
  %89 = and i32 %88, 1
  %90 = icmp ne i32 %89, 0
  br i1 %90, label %91, label %109

91:                                               ; preds = %80
  br label %92

92:                                               ; preds = %91
  %93 = load ptr, ptr @Curl_cfree, align 8, !tbaa !11
  %94 = load ptr, ptr %2, align 8, !tbaa !4
  %95 = getelementptr inbounds nuw %struct.Curl_easy, ptr %94, i32 0, i32 19
  %96 = getelementptr inbounds nuw %struct.UrlState, ptr %95, i32 0, i32 35
  %97 = load ptr, ptr %96, align 8, !tbaa !85
  call void %93(ptr noundef %97)
  %98 = load ptr, ptr %2, align 8, !tbaa !4
  %99 = getelementptr inbounds nuw %struct.Curl_easy, ptr %98, i32 0, i32 19
  %100 = getelementptr inbounds nuw %struct.UrlState, ptr %99, i32 0, i32 35
  store ptr null, ptr %100, align 8, !tbaa !85
  br label %101

101:                                              ; preds = %92
  br label %102

102:                                              ; preds = %101
  %103 = load ptr, ptr %2, align 8, !tbaa !4
  %104 = getelementptr inbounds nuw %struct.Curl_easy, ptr %103, i32 0, i32 19
  %105 = getelementptr inbounds nuw %struct.UrlState, ptr %104, i32 0, i32 54
  %106 = load i32, ptr %105, align 4
  %107 = and i32 %106, -65537
  %108 = or i32 %107, 0
  store i32 %108, ptr %105, align 4
  br label %109

109:                                              ; preds = %102, %80
  %110 = load ptr, ptr %2, align 8, !tbaa !4
  %111 = getelementptr inbounds nuw %struct.Curl_easy, ptr %110, i32 0, i32 19
  %112 = getelementptr inbounds nuw %struct.UrlState, ptr %111, i32 0, i32 35
  store ptr null, ptr %112, align 8, !tbaa !85
  %113 = load ptr, ptr %2, align 8, !tbaa !4
  %114 = getelementptr inbounds nuw %struct.Curl_easy, ptr %113, i32 0, i32 15
  %115 = getelementptr inbounds nuw %struct.UserDefined, ptr %114, i32 0, i32 56
  call void @Curl_mime_cleanpart(ptr noundef %115)
  %116 = load ptr, ptr %2, align 8, !tbaa !4
  %117 = getelementptr inbounds nuw %struct.Curl_easy, ptr %116, i32 0, i32 19
  %118 = getelementptr inbounds nuw %struct.UrlState, ptr %117, i32 0, i32 46
  %119 = load ptr, ptr %118, align 8, !tbaa !86
  call void @curl_slist_free_all(ptr noundef %119)
  %120 = load ptr, ptr %2, align 8, !tbaa !4
  %121 = getelementptr inbounds nuw %struct.Curl_easy, ptr %120, i32 0, i32 19
  %122 = getelementptr inbounds nuw %struct.UrlState, ptr %121, i32 0, i32 46
  store ptr null, ptr %122, align 8, !tbaa !86
  call void @llvm.lifetime.end.p0(i64 4, ptr %4) #8
  call void @llvm.lifetime.end.p0(i64 4, ptr %3) #8
  ret void
}

; Function Attrs: nounwind uwtable
define dso_local i32 @Curl_open(ptr noundef %0) #0 {
  %2 = alloca i32, align 4
  %3 = alloca ptr, align 8
  %4 = alloca i32, align 4
  %5 = alloca ptr, align 8
  %6 = alloca i32, align 4
  store ptr %0, ptr %3, align 8, !tbaa !87
  call void @llvm.lifetime.start.p0(i64 4, ptr %4) #8
  call void @llvm.lifetime.start.p0(i64 8, ptr %5) #8
  %7 = load ptr, ptr @Curl_ccalloc, align 8, !tbaa !11
  %8 = call ptr %7(i64 noundef 1, i64 noundef 5136)
  store ptr %8, ptr %5, align 8, !tbaa !4
  %9 = load ptr, ptr %5, align 8, !tbaa !4
  %10 = icmp ne ptr %9, null
  br i1 %10, label %15, label %11

11:                                               ; preds = %1
  br label %12

12:                                               ; preds = %11
  br label %13

13:                                               ; preds = %12
  br label %14

14:                                               ; preds = %13
  store i32 27, ptr %2, align 4
  store i32 1, ptr %6, align 4
  br label %91

15:                                               ; preds = %1
  %16 = load ptr, ptr %5, align 8, !tbaa !4
  %17 = getelementptr inbounds nuw %struct.Curl_easy, ptr %16, i32 0, i32 0
  store i32 -1059136595, ptr %17, align 8, !tbaa !91
  %18 = load ptr, ptr %5, align 8, !tbaa !4
  %19 = getelementptr inbounds nuw %struct.Curl_easy, ptr %18, i32 0, i32 14
  call void @Curl_req_init(ptr noundef %19)
  store i32 0, ptr %4, align 4, !tbaa !9
  %20 = load i32, ptr %4, align 4, !tbaa !9
  %21 = icmp ne i32 %20, 0
  br i1 %21, label %22, label %32

22:                                               ; preds = %15
  br label %23

23:                                               ; preds = %22
  br label %24

24:                                               ; preds = %23
  br label %25

25:                                               ; preds = %24
  %26 = load ptr, ptr %5, align 8, !tbaa !4
  %27 = getelementptr inbounds nuw %struct.Curl_easy, ptr %26, i32 0, i32 14
  %28 = load ptr, ptr %5, align 8, !tbaa !4
  call void @Curl_req_free(ptr noundef %27, ptr noundef %28)
  %29 = load ptr, ptr @Curl_cfree, align 8, !tbaa !11
  %30 = load ptr, ptr %5, align 8, !tbaa !4
  call void %29(ptr noundef %30)
  %31 = load i32, ptr %4, align 4, !tbaa !9
  store i32 %31, ptr %2, align 4
  store i32 1, ptr %6, align 4
  br label %91

32:                                               ; preds = %15
  %33 = load ptr, ptr %5, align 8, !tbaa !4
  %34 = call i32 @Curl_init_userdefined(ptr noundef %33)
  store i32 %34, ptr %4, align 4, !tbaa !9
  %35 = load i32, ptr %4, align 4, !tbaa !9
  %36 = icmp ne i32 %35, 0
  br i1 %36, label %70, label %37

37:                                               ; preds = %32
  %38 = load ptr, ptr %5, align 8, !tbaa !4
  %39 = getelementptr inbounds nuw %struct.Curl_easy, ptr %38, i32 0, i32 19
  %40 = getelementptr inbounds nuw %struct.UrlState, ptr %39, i32 0, i32 3
  call void @Curl_dyn_init(ptr noundef %40, i64 noundef 102400)
  %41 = load ptr, ptr %5, align 8, !tbaa !4
  %42 = call i32 @Curl_initinfo(ptr noundef %41)
  %43 = load ptr, ptr %5, align 8, !tbaa !4
  %44 = getelementptr inbounds nuw %struct.Curl_easy, ptr %43, i32 0, i32 19
  %45 = getelementptr inbounds nuw %struct.UrlState, ptr %44, i32 0, i32 1
  store i64 -1, ptr %45, align 8, !tbaa !174
  %46 = load ptr, ptr %5, align 8, !tbaa !4
  %47 = getelementptr inbounds nuw %struct.Curl_easy, ptr %46, i32 0, i32 19
  %48 = getelementptr inbounds nuw %struct.UrlState, ptr %47, i32 0, i32 2
  store i64 -1, ptr %48, align 8, !tbaa !175
  %49 = load ptr, ptr %5, align 8, !tbaa !4
  %50 = getelementptr inbounds nuw %struct.Curl_easy, ptr %49, i32 0, i32 1
  store i64 -1, ptr %50, align 8, !tbaa !176
  %51 = load ptr, ptr %5, align 8, !tbaa !4
  %52 = getelementptr inbounds nuw %struct.Curl_easy, ptr %51, i32 0, i32 2
  store i64 -1, ptr %52, align 8, !tbaa !177
  %53 = load ptr, ptr %5, align 8, !tbaa !4
  %54 = getelementptr inbounds nuw %struct.Curl_easy, ptr %53, i32 0, i32 15
  %55 = getelementptr inbounds nuw %struct.UserDefined, ptr %54, i32 0, i32 115
  store i64 -1, ptr %55, align 8, !tbaa !178
  %56 = load ptr, ptr %5, align 8, !tbaa !4
  %57 = getelementptr inbounds nuw %struct.Curl_easy, ptr %56, i32 0, i32 18
  %58 = getelementptr inbounds nuw %struct.Progress, ptr %57, i32 0, i32 6
  %59 = load i32, ptr %58, align 4, !tbaa !179
  %60 = or i32 %59, 16
  store i32 %60, ptr %58, align 4, !tbaa !179
  %61 = load ptr, ptr %5, align 8, !tbaa !4
  %62 = getelementptr inbounds nuw %struct.Curl_easy, ptr %61, i32 0, i32 19
  %63 = getelementptr inbounds nuw %struct.UrlState, ptr %62, i32 0, i32 5
  store i64 -1, ptr %63, align 8, !tbaa !180
  %64 = load ptr, ptr %5, align 8, !tbaa !4
  %65 = getelementptr inbounds nuw %struct.Curl_easy, ptr %64, i32 0, i32 19
  %66 = getelementptr inbounds nuw %struct.UrlState, ptr %65, i32 0, i32 42
  call void @Curl_llist_init(ptr noundef %66, ptr noundef null)
  %67 = load ptr, ptr %5, align 8, !tbaa !4
  %68 = getelementptr inbounds nuw %struct.Curl_easy, ptr %67, i32 0, i32 19
  %69 = getelementptr inbounds nuw %struct.UrlState, ptr %68, i32 0, i32 48
  call void @Curl_netrc_init(ptr noundef %69)
  br label %70

70:                                               ; preds = %37, %32
  %71 = load i32, ptr %4, align 4, !tbaa !9
  %72 = icmp ne i32 %71, 0
  br i1 %72, label %73, label %86

73:                                               ; preds = %70
  br label %74

74:                                               ; preds = %73
  br label %75

75:                                               ; preds = %74
  br label %76

76:                                               ; preds = %75
  %77 = load ptr, ptr %5, align 8, !tbaa !4
  %78 = getelementptr inbounds nuw %struct.Curl_easy, ptr %77, i32 0, i32 19
  %79 = getelementptr inbounds nuw %struct.UrlState, ptr %78, i32 0, i32 3
  call void @Curl_dyn_free(ptr noundef %79)
  %80 = load ptr, ptr %5, align 8, !tbaa !4
  call void @Curl_freeset(ptr noundef %80)
  %81 = load ptr, ptr %5, align 8, !tbaa !4
  %82 = getelementptr inbounds nuw %struct.Curl_easy, ptr %81, i32 0, i32 14
  %83 = load ptr, ptr %5, align 8, !tbaa !4
  call void @Curl_req_free(ptr noundef %82, ptr noundef %83)
  %84 = load ptr, ptr @Curl_cfree, align 8, !tbaa !11
  %85 = load ptr, ptr %5, align 8, !tbaa !4
  call void %84(ptr noundef %85)
  store ptr null, ptr %5, align 8, !tbaa !4
  br label %89

86:                                               ; preds = %70
  %87 = load ptr, ptr %5, align 8, !tbaa !4
  %88 = load ptr, ptr %3, align 8, !tbaa !87
  store ptr %87, ptr %88, align 8, !tbaa !4
  br label %89

89:                                               ; preds = %86, %76
  %90 = load i32, ptr %4, align 4, !tbaa !9
  store i32 %90, ptr %2, align 4
  store i32 1, ptr %6, align 4
  br label %91

91:                                               ; preds = %89, %25, %14
  call void @llvm.lifetime.end.p0(i64 8, ptr %5) #8
  call void @llvm.lifetime.end.p0(i64 4, ptr %4) #8
  %92 = load i32, ptr %2, align 4
  ret i32 %92
}