; Function Attrs: nounwind uwtable
define dso_local range(i32 0, 28) i32 @Curl_open(ptr noundef writeonly captures(none) %0) local_unnamed_addr #0 {
  %2 = load ptr, ptr @Curl_ccalloc, align 8, !tbaa !4
  %3 = tail call ptr %2(i64 noundef 1, i64 noundef 5136) #12
  %.not = icmp eq ptr %3, null
  br i1 %.not, label %18, label %4

4:                                                ; preds = %1
  store i32 -1059136595, ptr %3, align 8, !tbaa !88
  %5 = getelementptr inbounds nuw i8, ptr %3, i64 232
  tail call void @Curl_req_init(ptr noundef nonnull %5) #12
  %6 = tail call i32 @Curl_init_userdefined(ptr noundef nonnull %3)
  %7 = getelementptr inbounds nuw i8, ptr %3, i64 3040
  tail call void @Curl_dyn_init(ptr noundef nonnull %7, i64 noundef 102400) #12
  %8 = tail call i32 @Curl_initinfo(ptr noundef nonnull %3) #12
  %9 = getelementptr inbounds nuw i8, ptr %3, i64 3024
  %10 = getelementptr inbounds nuw i8, ptr %3, i64 8
  %11 = getelementptr inbounds nuw i8, ptr %3, i64 2520
  store i64 -1, ptr %11, align 8, !tbaa !168
  %12 = getelementptr inbounds nuw i8, ptr %3, i64 2716
  tail call void @llvm.memset.p0.i64(ptr noundef nonnull align 8 dereferenceable(16) %10, i8 -1, i64 16, i1 false)
  tail call void @llvm.memset.p0.i64(ptr noundef nonnull align 8 dereferenceable(16) %9, i8 -1, i64 16, i1 false)
  %13 = load i32, ptr %12, align 4, !tbaa !169
  %14 = or i32 %13, 16
  store i32 %14, ptr %12, align 4, !tbaa !169
  %15 = getelementptr inbounds nuw i8, ptr %3, i64 3080
  store i64 -1, ptr %15, align 8, !tbaa !170
  %16 = getelementptr inbounds nuw i8, ptr %3, i64 4560
  tail call void @Curl_llist_init(ptr noundef nonnull %16, ptr noundef null) #12
  %17 = getelementptr inbounds nuw i8, ptr %3, i64 4720
  tail call void @Curl_netrc_init(ptr noundef nonnull %17) #12
  store ptr %3, ptr %0, align 8, !tbaa !85
  br label %18

18:                                               ; preds = %1, %4
  %.0 = phi i32 [ 0, %4 ], [ 27, %1 ]
  ret i32 %.0
}